Certificate:
    Data:
        Version: 3 (0x2)
        Serial Number: 1 (0x1)
        Signature Algorithm: sha512WithRSAEncryption
        Issuer: C=US, ST=CA, O=Open vSwitch, OU=switchca, CN=OVS switchca CA Certificate (2020 Sep 30 14:38:04)
        Validity
            Not Before: Sep 30 14:38:04 2020 GMT
            Not After : Sep 28 14:38:04 2030 GMT
        Subject: C=US, ST=CA, O=Open vSwitch, OU=switchca, CN=OVS switchca CA Certificate (2020 Sep 30 14:38:04)
        Subject Public Key Info:
            Public Key Algorithm: rsaEncryption
                RSA Public-Key: (2048 bit)
                Modulus:
                    00:ca:ec:5a:75:15:2b:84:71:a9:ef:b9:69:c1:70:
                    45:61:b6:6f:e5:56:9b:26:6a:05:79:aa:3b:1e:cc:
                    1b:8b:0f:c1:85:fb:68:4f:73:63:be:81:94:85:1b:
                    c2:76:83:14:2a:8f:f5:da:d4:e4:57:8b:40:2a:75:
                    df:30:c8:5b:b9:2a:56:29:71:85:2f:47:0d:ba:76:
                    03:de:95:ad:22:ea:f2:62:fa:88:5b:43:03:e3:dd:
                    17:ea:75:f9:4c:72:96:a4:2e:8f:f7:16:ba:50:51:
                    7a:53:ca:9b:ef:51:e1:3a:60:80:92:4a:a4:c8:0b:
                    07:ee:25:41:02:ff:cf:d2:79:d3:40:31:3c:2c:90:
                    61:66:8f:40:14:95:f6:66:2f:c1:a4:6b:f3:70:2b:
                    b6:e3:35:3e:8a:84:d5:8a:26:25:9a:fb:69:85:e0:
                    08:4a:f0:0f:fd:3d:2c:e0:c7:c1:0c:f0:61:6b:7b:
                    a4:df:cd:f7:81:0a:44:96:ad:61:c5:e0:78:83:d1:
                    3d:5a:da:3a:75:bb:fa:4e:dd:99:c6:36:4b:02:c7:
                    2c:f6:17:6e:30:1b:9b:b0:7b:6d:80:e6:94:7c:0d:
                    1c:74:cf:04:4f:7d:f2:27:0d:53:07:7f:b6:8d:6e:
                    83:a7:65:b6:5e:04:27:8a:86:de:45:c6:7f:9f:15:
                    9f:51
                Exponent: 65537 (0x10001)
        X509v3 extensions:
            X509v3 Basic Constraints: 
                CA:TRUE
    Signature Algorithm: sha512WithRSAEncryption
         c6:a8:f0:2f:35:39:d6:9c:25:2d:55:0d:c6:b1:11:dc:95:a6:
         60:df:d3:24:41:af:ad:f6:17:ce:63:b7:d9:47:5d:ea:c8:6b:
         98:2b:7a:03:98:51:f9:6d:40:2d:e1:07:80:76:18:c9:3f:f1:
         7b:9e:b2:70:8d:41:59:5f:3e:c4:bb:8d:b4:a7:70:d0:89:3c:
         3e:4e:f2:f1:be:68:6a:92:8e:5b:62:15:dc:84:a8:33:0b:19:
         bf:14:e4:14:64:74:20:d6:c8:fa:00:ad:ea:4e:b2:a9:1c:2e:
         ec:8d:79:0c:3b:1b:ea:7f:0e:46:1b:db:aa:ad:59:5d:33:92:
         1f:df:27:18:2b:65:bc:a1:01:18:d4:29:7e:40:c4:f4:e0:e7:
         dd:45:fd:c4:65:2b:cc:61:69:fe:8f:b9:d1:24:89:96:c4:e6:
         0d:10:ec:c9:bf:cd:e8:89:51:a7:d4:6a:bb:82:6d:d7:b1:68:
         a4:f7:3e:56:af:95:36:23:2e:de:0a:18:e9:00:ec:c6:51:01:
         c9:b7:45:5d:42:f4:f0:7b:c8:63:6c:1f:45:84:fd:db:ab:94:
         82:32:fb:84:02:4f:44:b8:2e:5b:3a:c6:5c:da:ed:4a:8d:4f:
         85:c9:f2:57:44:7f:5c:fb:31:c4:72:01:26:d2:16:51:d3:a3:
         51:91:31:d9
-----BEGIN CERTIFICATE-----
MIIDjzCCAnegAwIBAgIBATANBgkqhkiG9w0BAQ0FADCBgTELMAkGA1UEBhMCVVMx
CzAJBgNVBAgMAkNBMRUwEwYDVQQKDAxPcGVuIHZTd2l0Y2gxETAPBgNVBAsMCHN3
aXRjaGNhMTswOQYDVQQDDDJPVlMgc3dpdGNoY2EgQ0EgQ2VydGlmaWNhdGUgKDIw
MjAgU2VwIDMwIDE0OjM4OjA0KTAeFw0yMDA5MzAxNDM4MDRaFw0zMDA5MjgxNDM4
MDRaMIGBMQswCQYDVQQGEwJVUzELMAkGA1UECAwCQ0ExFTATBgNVBAoMDE9wZW4g
dlN3aXRjaDERMA8GA1UECwwIc3dpdGNoY2ExOzA5BgNVBAMMMk9WUyBzd2l0Y2hj
YSBDQSBDZXJ0aWZpY2F0ZSAoMjAyMCBTZXAgMzAgMTQ6Mzg6MDQpMIIBIjANBgkq
hkiG9w0BAQEFAAOCAQ8AMIIBCgKCAQEAyuxadRUrhHGp77lpwXBFYbZv5VabJmoF
eao7Hswbiw/BhftoT3NjvoGUhRvCdoMUKo/12tTkV4tAKnXfMMhbuSpWKXGFL0cN
unYD3pWtIuryYvqIW0MD490X6nX5THKWpC6P9xa6UFF6U8qb71HhOmCAkkqkyAsH
7iVBAv/P0nnTQDE8LJBhZo9AFJX2Zi/BpGvzcCu24zU+ioTViiYlmvtpheAISvAP
/T0s4MfBDPBha3uk3833gQpElq1hxeB4g9E9Wto6dbv6Tt2ZxjZLAscs9hduMBub
sHttgOaUfA0cdM8ET33yJw1TB3+2jW6Dp2W2XgQniobeRcZ/nxWfUQIDAQABoxAw
DjAMBgNVHRMEBTADAQH/MA0GCSqGSIb3DQEBDQUAA4IBAQDGqPAvNTnWnCUtVQ3G
sRHclaZg39MkQa+t9hfOY7fZR13qyGuYK3oDmFH5bUAt4QeAdhjJP/F7nrJwjUFZ
Xz7Eu420p3DQiTw+TvLxvmhqko5bYhXchKgzCxm/FOQUZHQg1sj6AK3qTrKpHC7s
jXkMOxvqfw5GG9uqrVldM5If3ycYK2W8oQEY1Cl+QMT04OfdRf3EZSvMYWn+j7nR
JImWxOYNEOzJv83oiVGn1Gq7gm3XsWik9z5Wr5U2Iy7eChjpAOzGUQHJt0VdQvTw
e8hjbB9FhP3bq5SCMvuEAk9EuC5bOsZc2u1KjU+FyfJXRH9c+zHEcgEm0hZR06NR
kTHZ
-----END CERTIFICATE-----
