Certificate Request:
    Data:
        Version: 1 (0x0)
        Subject: C = US, ST = CA, L = Palo Alto, O = Open vSwitch, OU = Open vSwitch certifier, CN = ovn id:c971f02a-4e3c-4a16-a26e-8063e3f6cce1
        Subject Public Key Info:
            Public Key Algorithm: rsaEncryption
                RSA Public-Key: (2048 bit)
                Modulus:
                    00:c6:62:79:5d:59:61:cf:6f:08:38:13:34:35:96:
                    85:dc:59:7d:78:96:03:2d:7e:e1:74:b4:e6:f6:33:
                    dd:dd:9e:31:0d:c4:5c:1e:6d:04:b0:1e:08:e2:1e:
                    cb:a8:cd:52:c3:94:39:f3:72:2e:22:22:84:06:8e:
                    60:bf:e9:1a:5c:06:a7:0a:36:9c:69:79:db:14:f7:
                    bc:ab:95:4d:bb:bc:c8:0e:d6:c6:1e:25:51:80:9f:
                    a6:b7:5f:db:7f:4e:df:b3:dc:94:b7:34:98:62:1b:
                    08:61:d0:d2:ed:d8:4b:b7:0d:8a:eb:77:e3:2a:b2:
                    6c:0e:0e:4e:03:b7:65:ec:0d:f0:5f:8e:50:2a:37:
                    1a:92:98:49:a4:2b:ab:a0:6f:ed:77:43:94:52:ed:
                    0b:af:ff:73:66:50:15:e1:c0:0f:22:a0:67:d3:37:
                    17:1a:77:5b:5a:22:85:75:35:80:4d:ef:e4:b1:5b:
                    7b:e1:b5:a3:c1:83:dc:b2:3d:e1:74:f4:e7:e7:a3:
                    d5:b9:27:5b:e5:ca:da:ae:15:d7:16:ca:b3:53:83:
                    05:bf:3c:66:87:31:25:72:f7:ef:b7:da:7d:ab:d8:
                    66:1e:86:ab:4c:20:60:60:88:b4:e8:4b:dd:d3:28:
                    41:26:4f:84:d9:16:6d:7c:bc:c3:d6:25:84:27:e4:
                    c6:c1
                Exponent: 65537 (0x10001)
        Attributes:
        Requested Extensions:
            X509v3 Subject Alternative Name: 
                DNS:ovn id:c971f02a-4e3c-4a16-a26e-8063e3f6cce1
    Signature Algorithm: sha256WithRSAEncryption
         07:ec:9a:9e:ac:2f:0d:df:08:b5:36:9f:e3:49:6f:29:58:c7:
         9c:38:6b:54:2e:74:fb:67:c2:55:29:03:b4:9c:5c:88:80:3e:
         4b:5c:29:ea:1e:6a:d3:91:c0:fc:ae:67:a5:f3:36:b5:00:1a:
         27:51:24:d7:65:5b:9e:8c:d2:7d:31:09:1f:7d:ae:23:f3:b1:
         44:44:f4:4f:2b:9f:fb:67:44:e1:a9:1a:62:af:c4:c2:30:34:
         b3:2c:10:29:7f:d8:4f:29:bb:02:6f:ed:fb:81:dc:3c:a3:2a:
         b4:bd:be:7e:e7:de:0d:04:4e:5b:82:c5:2d:7f:81:0e:04:c9:
         1f:f1:3d:56:57:9e:88:90:d3:53:a5:6d:cb:28:18:70:a9:75:
         6e:50:82:95:1a:cd:d7:89:13:82:ac:e7:18:d2:81:32:8a:c1:
         1f:d5:bd:54:17:c3:7d:8b:10:a7:cd:5f:0f:ff:db:da:76:e4:
         65:a3:1f:66:6a:48:25:3d:d3:95:7e:12:8d:0d:a5:79:f2:e5:
         c4:c2:cf:c1:c1:c5:dd:36:6c:d0:e7:0b:0a:81:ba:a6:f2:ae:
         fe:45:c8:2c:08:9a:32:b3:36:ed:c4:d6:d4:ff:3e:42:42:b6:
         38:5c:d7:01:49:5a:ec:26:ee:fe:c6:13:40:02:d9:b2:bc:f0:
         6d:ba:58:9c
-----BEGIN CERTIFICATE REQUEST-----
MIIDKzCCAhMCAQAwgZwxCzAJBgNVBAYTAlVTMQswCQYDVQQIDAJDQTESMBAGA1UE
BwwJUGFsbyBBbHRvMRUwEwYDVQQKDAxPcGVuIHZTd2l0Y2gxHzAdBgNVBAsMFk9w
ZW4gdlN3aXRjaCBjZXJ0aWZpZXIxNDAyBgNVBAMMK292biBpZDpjOTcxZjAyYS00
ZTNjLTRhMTYtYTI2ZS04MDYzZTNmNmNjZTEwggEiMA0GCSqGSIb3DQEBAQUAA4IB
DwAwggEKAoIBAQDGYnldWWHPbwg4EzQ1loXcWX14lgMtfuF0tOb2M93dnjENxFwe
bQSwHgjiHsuozVLDlDnzci4iIoQGjmC/6RpcBqcKNpxpedsU97yrlU27vMgO1sYe
JVGAn6a3X9t/Tt+z3JS3NJhiGwhh0NLt2Eu3DYrrd+MqsmwODk4Dt2XsDfBfjlAq
NxqSmEmkK6ugb+13Q5RS7Quv/3NmUBXhwA8ioGfTNxcad1taIoV1NYBN7+SxW3vh
taPBg9yyPeF09Ofno9W5J1vlytquFdcWyrNTgwW/PGaHMSVy9++32n2r2GYehqtM
IGBgiLToS93TKEEmT4TZFm18vMPWJYQn5MbBAgMBAAGgSTBHBgkqhkiG9w0BCQ4x
OjA4MDYGA1UdEQQvMC2CK292biBpZDpjOTcxZjAyYS00ZTNjLTRhMTYtYTI2ZS04
MDYzZTNmNmNjZTEwDQYJKoZIhvcNAQELBQADggEBAAfsmp6sLw3fCLU2n+NJbylY
x5w4a1QudPtnwlUpA7ScXIiAPktcKeoeatORwPyuZ6XzNrUAGidRJNdlW56M0n0x
CR99riPzsURE9E8rn/tnROGpGmKvxMIwNLMsECl/2E8puwJv7fuB3DyjKrS9vn7n
3g0ETluCxS1/gQ4EyR/xPVZXnoiQ01OlbcsoGHCpdW5QgpUazdeJE4Ks5xjSgTKK
wR/VvVQXw32LEKfNXw//29p25GWjH2ZqSCU905V+Eo0NpXny5cTCz8HBxd02bNDn
CwqBuqbyrv5FyCwImjKzNu3E1tT/PkJCtjhc1wFJWuwm7v7GE0AC2bK88G26WJw=
-----END CERTIFICATE REQUEST-----
