Certificate:
    Data:
        Version: 3 (0x2)
        Serial Number: 2 (0x2)
        Signature Algorithm: sha512WithRSAEncryption
        Issuer: C=US, ST=CA, O=Open vSwitch, OU=switchca, CN=OVS switchca CA Certificate (2020 Sep 30 14:38:04)
        Validity
            Not Before: Sep 30 14:38:04 2020 GMT
            Not After : Sep 28 14:38:04 2030 GMT
        Subject: C=US, ST=CA, O=Open vSwitch, OU=Open vSwitch certifier, CN=ovn id:c971f02a-4e3c-4a16-a26e-8063e3f6cce1
        Subject Public Key Info:
            Public Key Algorithm: rsaEncryption
                RSA Public-Key: (2048 bit)
                Modulus:
                    00:c6:62:79:5d:59:61:cf:6f:08:38:13:34:35:96:
                    85:dc:59:7d:78:96:03:2d:7e:e1:74:b4:e6:f6:33:
                    dd:dd:9e:31:0d:c4:5c:1e:6d:04:b0:1e:08:e2:1e:
                    cb:a8:cd:52:c3:94:39:f3:72:2e:22:22:84:06:8e:
                    60:bf:e9:1a:5c:06:a7:0a:36:9c:69:79:db:14:f7:
                    bc:ab:95:4d:bb:bc:c8:0e:d6:c6:1e:25:51:80:9f:
                    a6:b7:5f:db:7f:4e:df:b3:dc:94:b7:34:98:62:1b:
                    08:61:d0:d2:ed:d8:4b:b7:0d:8a:eb:77:e3:2a:b2:
                    6c:0e:0e:4e:03:b7:65:ec:0d:f0:5f:8e:50:2a:37:
                    1a:92:98:49:a4:2b:ab:a0:6f:ed:77:43:94:52:ed:
                    0b:af:ff:73:66:50:15:e1:c0:0f:22:a0:67:d3:37:
                    17:1a:77:5b:5a:22:85:75:35:80:4d:ef:e4:b1:5b:
                    7b:e1:b5:a3:c1:83:dc:b2:3d:e1:74:f4:e7:e7:a3:
                    d5:b9:27:5b:e5:ca:da:ae:15:d7:16:ca:b3:53:83:
                    05:bf:3c:66:87:31:25:72:f7:ef:b7:da:7d:ab:d8:
                    66:1e:86:ab:4c:20:60:60:88:b4:e8:4b:dd:d3:28:
                    41:26:4f:84:d9:16:6d:7c:bc:c3:d6:25:84:27:e4:
                    c6:c1
                Exponent: 65537 (0x10001)
        X509v3 extensions:
            X509v3 Basic Constraints: 
                CA:FALSE
            X509v3 Subject Alternative Name: 
                DNS:ovn id:c971f02a-4e3c-4a16-a26e-8063e3f6cce1
    Signature Algorithm: sha512WithRSAEncryption
         68:cb:d5:68:ba:d5:f9:0e:ac:6e:db:a4:33:71:37:92:b9:37:
         2a:2f:e0:a7:e7:83:6d:4f:f5:01:5f:9d:61:31:74:b6:c9:ce:
         88:ae:bf:20:93:72:56:c5:4b:95:81:8b:31:6e:a3:00:3b:72:
         b6:4a:9c:7c:fa:a7:d6:b3:7c:bc:6a:d1:3e:b0:41:a4:2a:e3:
         9a:14:5e:2a:e8:1a:ab:9a:f2:29:de:57:d4:22:fa:74:86:a2:
         3d:a2:13:cf:98:75:52:25:e0:c7:24:67:5b:a5:88:79:56:ee:
         1e:6d:8c:ed:6a:14:0b:41:15:1b:f9:6b:bd:ae:67:3e:47:f9:
         ca:fa:c5:fb:f3:41:46:27:1c:48:3b:ab:61:80:c2:7b:b7:f5:
         7b:49:eb:dc:9f:19:17:c9:33:d9:75:d9:45:58:29:44:bc:12:
         ef:2d:bb:e1:0a:a0:44:8b:e2:ab:2d:3f:fc:17:61:b6:5d:2a:
         fd:cf:a7:63:a4:9a:2c:1f:da:ef:da:dc:8d:f3:62:9b:b4:59:
         c3:28:43:27:9c:63:88:27:5b:53:ed:a5:cb:ea:fa:fb:5c:3f:
         ee:a8:bf:b9:64:cc:69:f2:cb:51:4e:8c:25:01:b9:aa:60:cd:
         46:1a:a5:dd:f3:08:e2:aa:90:97:0d:46:be:b1:1e:b2:7d:5e:
         92:a7:72:f0
-----BEGIN CERTIFICATE-----
MIIDyzCCArOgAwIBAgIBAjANBgkqhkiG9w0BAQ0FADCBgTELMAkGA1UEBhMCVVMx
CzAJBgNVBAgMAkNBMRUwEwYDVQQKDAxPcGVuIHZTd2l0Y2gxETAPBgNVBAsMCHN3
aXRjaGNhMTswOQYDVQQDDDJPVlMgc3dpdGNoY2EgQ0EgQ2VydGlmaWNhdGUgKDIw
MjAgU2VwIDMwIDE0OjM4OjA0KTAeFw0yMDA5MzAxNDM4MDRaFw0zMDA5MjgxNDM4
MDRaMIGIMQswCQYDVQQGEwJVUzELMAkGA1UECAwCQ0ExFTATBgNVBAoMDE9wZW4g
dlN3aXRjaDEfMB0GA1UECwwWT3BlbiB2U3dpdGNoIGNlcnRpZmllcjE0MDIGA1UE
Awwrb3ZuIGlkOmM5NzFmMDJhLTRlM2MtNGExNi1hMjZlLTgwNjNlM2Y2Y2NlMTCC
ASIwDQYJKoZIhvcNAQEBBQADggEPADCCAQoCggEBAMZieV1ZYc9vCDgTNDWWhdxZ
fXiWAy1+4XS05vYz3d2eMQ3EXB5tBLAeCOIey6jNUsOUOfNyLiIihAaOYL/pGlwG
pwo2nGl52xT3vKuVTbu8yA7Wxh4lUYCfprdf239O37PclLc0mGIbCGHQ0u3YS7cN
iut34yqybA4OTgO3ZewN8F+OUCo3GpKYSaQrq6Bv7XdDlFLtC6//c2ZQFeHADyKg
Z9M3Fxp3W1oihXU1gE3v5LFbe+G1o8GD3LI94XT05+ej1bknW+XK2q4V1xbKs1OD
Bb88ZocxJXL377fafavYZh6Gq0wgYGCItOhL3dMoQSZPhNkWbXy8w9YlhCfkxsEC
AwEAAaNFMEMwCQYDVR0TBAIwADA2BgNVHREELzAtgitvdm4gaWQ6Yzk3MWYwMmEt
NGUzYy00YTE2LWEyNmUtODA2M2UzZjZjY2UxMA0GCSqGSIb3DQEBDQUAA4IBAQBo
y9VoutX5Dqxu26QzcTeSuTcqL+Cn54NtT/UBX51hMXS2yc6Irr8gk3JWxUuVgYsx
bqMAO3K2Spx8+qfWs3y8atE+sEGkKuOaFF4q6BqrmvIp3lfUIvp0hqI9ohPPmHVS
JeDHJGdbpYh5Vu4ebYztahQLQRUb+Wu9rmc+R/nK+sX780FGJxxIO6thgMJ7t/V7
SevcnxkXyTPZddlFWClEvBLvLbvhCqBEi+KrLT/8F2G2XSr9z6djpJosH9rv2tyN
82KbtFnDKEMnnGOIJ1tT7aXL6vr7XD/uqL+5ZMxp8stRTowlAbmqYM1GGqXd8wji
qpCXDUa+sR6yfV6Sp3Lw
-----END CERTIFICATE-----
